; Function Attrs: nounwind uwtable
define void @Gia_SweeperStop(ptr noundef initializes((116, 120)) %0) local_unnamed_addr #0 {
  %2 = getelementptr inbounds nuw i8, ptr %0, i64 116
  store i32 0, ptr %2, align 4, !tbaa !49
  %3 = getelementptr inbounds nuw i8, ptr %0, i64 768
  %4 = load ptr, ptr %3, align 8, !tbaa !10
  %5 = getelementptr inbounds nuw i8, ptr %4, i64 40
  %6 = load ptr, ptr %5, align 8, !tbaa !42
  tail call void @sat_solver_delete(ptr noundef %6) #23
  %7 = getelementptr inbounds nuw i8, ptr %4, i64 64
  %8 = load ptr, ptr %7, align 8, !tbaa !40
  %9 = getelementptr inbounds nuw i8, ptr %8, i64 8
  %10 = load ptr, ptr %9, align 8, !tbaa !34
  %.not.i.i = icmp eq ptr %10, null
  br i1 %.not.i.i, label %Vec_IntFree.exit.i, label %11

11:                                               ; preds = %1
  tail call void @free(ptr noundef nonnull %10) #23
  br label %Vec_IntFree.exit.i

Vec_IntFree.exit.i:                               ; preds = %11, %1
  tail call void @free(ptr noundef nonnull %8) #23
  %12 = getelementptr inbounds nuw i8, ptr %4, i64 72
  %13 = load ptr, ptr %12, align 8, !tbaa !41
  %14 = getelementptr inbounds nuw i8, ptr %13, i64 8
  %15 = load ptr, ptr %14, align 8, !tbaa !34
  %.not.i12.i = icmp eq ptr %15, null
  br i1 %.not.i12.i, label %Vec_IntFree.exit13.i, label %16

16:                                               ; preds = %Vec_IntFree.exit.i
  tail call void @free(ptr noundef nonnull %15) #23
  br label %Vec_IntFree.exit13.i

Vec_IntFree.exit13.i:                             ; preds = %16, %Vec_IntFree.exit.i
  tail call void @free(ptr noundef nonnull %13) #23
  %17 = getelementptr inbounds nuw i8, ptr %4, i64 48
  %18 = load ptr, ptr %17, align 8, !tbaa !38
  %19 = getelementptr inbounds nuw i8, ptr %18, i64 8
  %20 = load ptr, ptr %19, align 8, !tbaa !34
  %.not.i14.i = icmp eq ptr %20, null
  br i1 %.not.i14.i, label %Vec_IntFree.exit15.i, label %21

21:                                               ; preds = %Vec_IntFree.exit13.i
  tail call void @free(ptr noundef nonnull %20) #23
  br label %Vec_IntFree.exit15.i

Vec_IntFree.exit15.i:                             ; preds = %21, %Vec_IntFree.exit13.i
  tail call void @free(ptr noundef nonnull %18) #23
  %22 = getelementptr inbounds nuw i8, ptr %4, i64 56
  %23 = load ptr, ptr %22, align 8, !tbaa !39
  %24 = getelementptr inbounds nuw i8, ptr %23, i64 8
  %25 = load ptr, ptr %24, align 8, !tbaa !34
  %.not.i16.i = icmp eq ptr %25, null
  br i1 %.not.i16.i, label %Vec_IntFree.exit17.i, label %26

26:                                               ; preds = %Vec_IntFree.exit15.i
  tail call void @free(ptr noundef nonnull %25) #23
  br label %Vec_IntFree.exit17.i

Vec_IntFree.exit17.i:                             ; preds = %26, %Vec_IntFree.exit15.i
  tail call void @free(ptr noundef nonnull %23) #23
  %27 = getelementptr inbounds nuw i8, ptr %4, i64 16
  %28 = load ptr, ptr %27, align 8, !tbaa !35
  %29 = getelementptr inbounds nuw i8, ptr %28, i64 8
  %30 = load ptr, ptr %29, align 8, !tbaa !34
  %.not.i18.i = icmp eq ptr %30, null
  br i1 %.not.i18.i, label %Vec_IntFree.exit19.i, label %31

31:                                               ; preds = %Vec_IntFree.exit17.i
  tail call void @free(ptr noundef nonnull %30) #23
  br label %Vec_IntFree.exit19.i

Vec_IntFree.exit19.i:                             ; preds = %31, %Vec_IntFree.exit17.i
  tail call void @free(ptr noundef nonnull %28) #23
  %32 = getelementptr inbounds nuw i8, ptr %4, i64 24
  %33 = load ptr, ptr %32, align 8, !tbaa !36
  %34 = getelementptr inbounds nuw i8, ptr %33, i64 8
  %35 = load ptr, ptr %34, align 8, !tbaa !34
  %.not.i20.i = icmp eq ptr %35, null
  br i1 %.not.i20.i, label %Vec_IntFree.exit21.i, label %36

36:                                               ; preds = %Vec_IntFree.exit19.i
  tail call void @free(ptr noundef nonnull %35) #23
  br label %Vec_IntFree.exit21.i

Vec_IntFree.exit21.i:                             ; preds = %36, %Vec_IntFree.exit19.i
  tail call void @free(ptr noundef nonnull %33) #23
  %37 = getelementptr inbounds nuw i8, ptr %4, i64 32
  %38 = load ptr, ptr %37, align 8, !tbaa !37
  %39 = getelementptr inbounds nuw i8, ptr %38, i64 8
  %40 = load ptr, ptr %39, align 8, !tbaa !34
  %.not.i22.i = icmp eq ptr %40, null
  br i1 %.not.i22.i, label %Swp_ManStop.exit, label %41

41:                                               ; preds = %Vec_IntFree.exit21.i
  tail call void @free(ptr noundef nonnull %40) #23
  br label %Swp_ManStop.exit

Swp_ManStop.exit:                                 ; preds = %Vec_IntFree.exit21.i, %41
  tail call void @free(ptr noundef nonnull %38) #23
  tail call void @free(ptr noundef nonnull %4) #23
  store ptr null, ptr %3, align 8, !tbaa !10
  tail call void @Gia_ManHashStop(ptr noundef nonnull %0) #23
  ret void
}